target datalayout = "e-m:e-p270:32:32-p271:32:32-p272:64:64-i64:64-f80:128-n8:16:32:64-S128"
target triple = "x86_64-pc-linux-gnu"

@.str = private unnamed_addr constant [6 x i8] c"%d,%d\00", align 1
@.str.1 = private unnamed_addr constant [3 x i8] c"%d\00", align 1
@.str.2 = private unnamed_addr constant [6 x i8] c"%d+%d\00", align 1
@.str.3 = private unnamed_addr constant [3 x i8] c"No\00", align 1

; Function Attrs: noinline nounwind uwtable
define dso_local i32 @main() #0 {
  %1 = alloca i32, align 4
  %2 = alloca [8 x [8 x i32]], align 16
  %3 = alloca i32, align 4
  %4 = alloca i32, align 4
  %5 = alloca i32, align 4
  %6 = alloca i32, align 4
  %7 = alloca [8 x i32], align 16
  %8 = alloca [8 x i32], align 16
  %9 = alloca i32, align 4
  store i32 0, i32* %1, align 4
  store i32 0, i32* %9, align 4
  %10 = call i32 (i8*, ...) @__isoc99_scanf(i8* getelementptr inbounds ([6 x i8], [6 x i8]* @.str, i64 0, i64 0), i32* %3, i32* %4)
  store i32 0, i32* %6, align 4
  br label %11

11:                                               ; preds = %34, %0
  %12 = load i32, i32* %6, align 4
  %13 = load i32, i32* %3, align 4
  %14 = sub nsw i32 %13, 1
  %15 = icmp sle i32 %12, %14
  br i1 %15, label %16, label %37

16:                                               ; preds = %11
  store i32 0, i32* %5, align 4
  br label %17

17:                                               ; preds = %30, %16
  %18 = load i32, i32* %5, align 4
  %19 = load i32, i32* %4, align 4
  %20 = sub nsw i32 %19, 1
  %21 = icmp sle i32 %18, %20
  br i1 %21, label %22, label %33

22:                                               ; preds = %17
  %23 = load i32, i32* %6, align 4
  %24 = sext i32 %23 to i64
  %25 = getelementptr inbounds [8 x [8 x i32]], [8 x [8 x i32]]* %2, i64 0, i64 %24
  %26 = load i32, i32* %5, align 4
  %27 = sext i32 %26 to i64
  %28 = getelementptr inbounds [8 x i32], [8 x i32]* %25, i64 0, i64 %27
  %29 = call i32 (i8*, ...) @__isoc99_scanf(i8* getelementptr inbounds ([3 x i8], [3 x i8]* @.str.1, i64 0, i64 0), i32* %28)
  br label %30

30:                                               ; preds = %22
  %31 = load i32, i32* %5, align 4
  %32 = add nsw i32 %31, 1
  store i32 %32, i32* %5, align 4
  br label %17

33:                                               ; preds = %17
  br label %34

34:                                               ; preds = %33
  %35 = load i32, i32* %6, align 4
  %36 = add nsw i32 %35, 1
  store i32 %36, i32* %6, align 4
  br label %11

37:                                               ; preds = %11
  store i32 0, i32* %6, align 4
  br label %38

38:                                               ; preds = %53, %37
  %39 = load i32, i32* %6, align 4
  %40 = icmp sle i32 %39, 7
  br i1 %40, label %41, label %56

41:                                               ; preds = %38
  %42 = load i32, i32* %6, align 4
  %43 = sext i32 %42 to i64
  %44 = getelementptr inbounds [8 x i32], [8 x i32]* %7, i64 0, i64 %43
  store i32 0, i32* %44, align 4
  %45 = getelementptr inbounds [8 x [8 x i32]], [8 x [8 x i32]]* %2, i64 0, i64 0
  %46 = load i32, i32* %6, align 4
  %47 = sext i32 %46 to i64
  %48 = getelementptr inbounds [8 x i32], [8 x i32]* %45, i64 0, i64 %47
  %49 = load i32, i32* %48, align 4
  %50 = load i32, i32* %6, align 4
  %51 = sext i32 %50 to i64
  %52 = getelementptr inbounds [8 x i32], [8 x i32]* %8, i64 0, i64 %51
  store i32 %49, i32* %52, align 4
  br label %53

53:                                               ; preds = %41
  %54 = load i32, i32* %6, align 4
  %55 = add nsw i32 %54, 1
  store i32 %55, i32* %6, align 4
  br label %38

56:                                               ; preds = %38
  store i32 0, i32* %6, align 4
  br label %57

57:                                               ; preds = %97, %56
  %58 = load i32, i32* %6, align 4
  %59 = load i32, i32* %3, align 4
  %60 = sub nsw i32 %59, 1
  %61 = icmp sle i32 %58, %60
  br i1 %61, label %62, label %100

62:                                               ; preds = %57
  store i32 0, i32* %5, align 4
  br label %63

63:                                               ; preds = %93, %62
  %64 = load i32, i32* %5, align 4
  %65 = load i32, i32* %4, align 4
  %66 = sub nsw i32 %65, 1
  %67 = icmp sle i32 %64, %66
  br i1 %67, label %68, label %96

68:                                               ; preds = %63
  %69 = load i32, i32* %6, align 4
  %70 = sext i32 %69 to i64
  %71 = getelementptr inbounds [8 x i32], [8 x i32]* %7, i64 0, i64 %70
  %72 = load i32, i32* %71, align 4
  %73 = load i32, i32* %6, align 4
  %74 = sext i32 %73 to i64
  %75 = getelementptr inbounds [8 x [8 x i32]], [8 x [8 x i32]]* %2, i64 0, i64 %74
  %76 = load i32, i32* %5, align 4
  %77 = sext i32 %76 to i64
  %78 = getelementptr inbounds [8 x i32], [8 x i32]* %75, i64 0, i64 %77
  %79 = load i32, i32* %78, align 4
  %80 = icmp slt i32 %72, %79
  br i1 %80, label %81, label %92

81:                                               ; preds = %68
  %82 = load i32, i32* %6, align 4
  %83 = sext i32 %82 to i64
  %84 = getelementptr inbounds [8 x [8 x i32]], [8 x [8 x i32]]* %2, i64 0, i64 %83
  %85 = load i32, i32* %5, align 4
  %86 = sext i32 %85 to i64
  %87 = getelementptr inbounds [8 x i32], [8 x i32]* %84, i64 0, i64 %86
  %88 = load i32, i32* %87, align 4
  %89 = load i32, i32* %6, align 4
  %90 = sext i32 %89 to i64
  %91 = getelementptr inbounds [8 x i32], [8 x i32]* %7, i64 0, i64 %90
  store i32 %88, i32* %91, align 4
  br label %92

92:                                               ; preds = %81, %68
  br label %93

93:                                               ; preds = %92
  %94 = load i32, i32* %5, align 4
  %95 = add nsw i32 %94, 1
  store i32 %95, i32* %5, align 4
  br label %63

96:                                               ; preds = %63
  br label %97

97:                                               ; preds = %96
  %98 = load i32, i32* %6, align 4
  %99 = add nsw i32 %98, 1
  store i32 %99, i32* %6, align 4
  br label %57

100:                                              ; preds = %57
  store i32 0, i32* %6, align 4
  br label %101

101:                                              ; preds = %141, %100
  %102 = load i32, i32* %6, align 4
  %103 = load i32, i32* %4, align 4
  %104 = sub nsw i32 %103, 1
  %105 = icmp sle i32 %102, %104
  br i1 %105, label %106, label %144

106:                                              ; preds = %101
  store i32 0, i32* %5, align 4
  br label %107

107:                                              ; preds = %137, %106
  %108 = load i32, i32* %5, align 4
  %109 = load i32, i32* %3, align 4
  %110 = sub nsw i32 %109, 1
  %111 = icmp sle i32 %108, %110
  br i1 %111, label %112, label %140

112:                                              ; preds = %107
  %113 = load i32, i32* %6, align 4
  %114 = sext i32 %113 to i64
  %115 = getelementptr inbounds [8 x i32], [8 x i32]* %8, i64 0, i64 %114
  %116 = load i32, i32* %115, align 4
  %117 = load i32, i32* %5, align 4
  %118 = sext i32 %117 to i64
  %119 = getelementptr inbounds [8 x [8 x i32]], [8 x [8 x i32]]* %2, i64 0, i64 %118
  %120 = load i32, i32* %6, align 4
  %121 = sext i32 %120 to i64
  %122 = getelementptr inbounds [8 x i32], [8 x i32]* %119, i64 0, i64 %121
  %123 = load i32, i32* %122, align 4
  %124 = icmp sgt i32 %116, %123
  br i1 %124, label %125, label %136

125:                                              ; preds = %112
  %126 = load i32, i32* %5, align 4
  %127 = sext i32 %126 to i64
  %128 = getelementptr inbounds [8 x [8 x i32]], [8 x [8 x i32]]* %2, i64 0, i64 %127
  %129 = load i32, i32* %6, align 4
  %130 = sext i32 %129 to i64
  %131 = getelementptr inbounds [8 x i32], [8 x i32]* %128, i64 0, i64 %130
  %132 = load i32, i32* %131, align 4
  %133 = load i32, i32* %6, align 4
  %134 = sext i32 %133 to i64
  %135 = getelementptr inbounds [8 x i32], [8 x i32]* %8, i64 0, i64 %134
  store i32 %132, i32* %135, align 4
  br label %136

136:                                              ; preds = %125, %112
  br label %137

137:                                              ; preds = %136
  %138 = load i32, i32* %5, align 4
  %139 = add nsw i32 %138, 1
  store i32 %139, i32* %5, align 4
  br label %107

140:                                              ; preds = %107
  br label %141

141:                                              ; preds = %140
  %142 = load i32, i32* %6, align 4
  %143 = add nsw i32 %142, 1
  store i32 %143, i32* %6, align 4
  br label %101

144:                                              ; preds = %101
  store i32 0, i32* %6, align 4
  br label %145

145:                                              ; preds = %193, %144
  %146 = load i32, i32* %6, align 4
  %147 = load i32, i32* %3, align 4
  %148 = sub nsw i32 %147, 1
  %149 = icmp sle i32 %146, %148
  br i1 %149, label %150, label %196

150:                                              ; preds = %145
  store i32 0, i32* %5, align 4
  br label %151

151:                                              ; preds = %189, %150
  %152 = load i32, i32* %5, align 4
  %153 = load i32, i32* %4, align 4
  %154 = sub nsw i32 %153, 1
  %155 = icmp sle i32 %152, %154
  br i1 %155, label %156, label %192

156:                                              ; preds = %151
  %157 = load i32, i32* %6, align 4
  %158 = sext i32 %157 to i64
  %159 = getelementptr inbounds [8 x [8 x i32]], [8 x [8 x i32]]* %2, i64 0, i64 %158
  %160 = load i32, i32* %5, align 4
  %161 = sext i32 %160 to i64
  %162 = getelementptr inbounds [8 x i32], [8 x i32]* %159, i64 0, i64 %161
  %163 = load i32, i32* %162, align 4
  %164 = load i32, i32* %6, align 4
  %165 = sext i32 %164 to i64
  %166 = getelementptr inbounds [8 x i32], [8 x i32]* %7, i64 0, i64 %165
  %167 = load i32, i32* %166, align 4
  %168 = icmp eq i32 %163, %167
  br i1 %168, label %169, label %188

169:                                              ; preds = %156
  %170 = load i32, i32* %6, align 4
  %171 = sext i32 %170 to i64
  %172 = getelementptr inbounds [8 x [8 x i32]], [8 x [8 x i32]]* %2, i64 0, i64 %171
  %173 = load i32, i32* %5, align 4
  %174 = sext i32 %173 to i64
  %175 = getelementptr inbounds [8 x i32], [8 x i32]* %172, i64 0, i64 %174
  %176 = load i32, i32* %175, align 4
  %177 = load i32, i32* %5, align 4
  %178 = sext i32 %177 to i64
  %179 = getelementptr inbounds [8 x i32], [8 x i32]* %8, i64 0, i64 %178
  %180 = load i32, i32* %179, align 4
  %181 = icmp eq i32 %176, %180
  br i1 %181, label %182, label %188

182:                                              ; preds = %169
  %183 = load i32, i32* %6, align 4
  %184 = load i32, i32* %5, align 4
  %185 = call i32 (i8*, ...) @printf(i8* getelementptr inbounds ([6 x i8], [6 x i8]* @.str.2, i64 0, i64 0), i32 %183, i32 %184)
  %186 = load i32, i32* %9, align 4
  %187 = add nsw i32 %186, 1
  store i32 %187, i32* %9, align 4
  br label %188

188:                                              ; preds = %182, %169, %156
  br label %189

189:                                              ; preds = %188
  %190 = load i32, i32* %5, align 4
  %191 = add nsw i32 %190, 1
  store i32 %191, i32* %5, align 4
  br label %151

192:                                              ; preds = %151
  br label %193

193:                                              ; preds = %192
  %194 = load i32, i32* %6, align 4
  %195 = add nsw i32 %194, 1
  store i32 %195, i32* %6, align 4
  br label %145

196:                                              ; preds = %145
  %197 = load i32, i32* %9, align 4
  %198 = icmp eq i32 %197, 0
  br i1 %198, label %199, label %201

199:                                              ; preds = %196
  %200 = call i32 (i8*, ...) @printf(i8* getelementptr inbounds ([3 x i8], [3 x i8]* @.str.3, i64 0, i64 0))
  br label %201

201:                                              ; preds = %199, %196
  ret i32 0
}